; Function Attrs: nounwind uwtable
define internal void @EndCompressorGzip(ptr noundef %0, ptr noundef captures(none) %1) #0 {
  %3 = getelementptr inbounds nuw i8, ptr %1, i64 72
  %4 = load ptr, ptr %3, align 8
  %.not = icmp eq ptr %4, null
  br i1 %.not, label %44, label %5

5:                                                ; preds = %2
  %6 = load ptr, ptr %4, align 8
  store ptr null, ptr %6, align 8
  %7 = getelementptr inbounds nuw i8, ptr %6, i64 8
  store i32 0, ptr %7, align 8
  %8 = load ptr, ptr %3, align 8
  %9 = load ptr, ptr %8, align 8
  %10 = getelementptr inbounds nuw i8, ptr %8, i64 8
  %11 = load ptr, ptr %10, align 8
  %12 = getelementptr inbounds nuw i8, ptr %9, i64 32
  %13 = getelementptr inbounds nuw i8, ptr %8, i64 16
  %14 = getelementptr inbounds nuw i8, ptr %9, i64 8
  %15 = getelementptr inbounds nuw i8, ptr %1, i64 32
  %16 = getelementptr inbounds nuw i8, ptr %9, i64 24
  br label %.split.us.i.i

.split.us.i.i:                                    ; preds = %33, %5
  %17 = tail call i32 @deflate(ptr noundef %9, i32 noundef 4) #11
  %18 = icmp eq i32 %17, -2
  br i1 %18, label %.split31.us.i.i, label %19

19:                                               ; preds = %.split.us.i.i
  %20 = load i32, ptr %12, align 8
  %21 = zext i32 %20 to i64
  %22 = load i64, ptr %13, align 8
  %23 = icmp ugt i64 %22, %21
  br i1 %23, label %28, label %24

24:                                               ; preds = %19
  %25 = icmp eq i32 %20, 0
  br i1 %25, label %.thread.i.i, label %26

26:                                               ; preds = %24
  %27 = load i32, ptr %14, align 8
  %.not.us.i.i = icmp eq i32 %27, 0
  br i1 %.not.us.i.i, label %33, label %.thread.i.i

28:                                               ; preds = %19
  %29 = sub nuw i64 %22, %21
  %30 = load ptr, ptr %15, align 8
  tail call void %30(ptr noundef %0, ptr noundef %11, i64 noundef %29) #11
  br label %.thread.i.i

.thread.i.i:                                      ; preds = %28, %26, %24
  store ptr %11, ptr %16, align 8
  %31 = load i64, ptr %13, align 8
  %32 = trunc i64 %31 to i32
  store i32 %32, ptr %12, align 8
  br label %33

33:                                               ; preds = %.thread.i.i, %26
  %34 = icmp eq i32 %17, 1
  br i1 %34, label %DeflateCompressorCommon.exit.i, label %.split.us.i.i, !llvm.loop !8

.split31.us.i.i:                                  ; preds = %.split.us.i.i
  %35 = getelementptr inbounds nuw i8, ptr %9, i64 48
  %36 = load ptr, ptr %35, align 8
  tail call void (i32, i32, ptr, ...) @pg_log_generic(i32 noundef 4, i32 noundef 0, ptr noundef nonnull @.str.4, ptr noundef %36) #11
  tail call void @exit_nicely(i32 noundef 1) #12
  unreachable

DeflateCompressorCommon.exit.i:                   ; preds = %33
  %37 = tail call i32 @deflateEnd(ptr noundef nonnull %6) #11
  %.not.i = icmp eq i32 %37, 0
  br i1 %.not.i, label %DeflateCompressorEnd.exit, label %38

38:                                               ; preds = %DeflateCompressorCommon.exit.i
  %39 = getelementptr inbounds nuw i8, ptr %6, i64 48
  %40 = load ptr, ptr %39, align 8
  tail call void (i32, i32, ptr, ...) @pg_log_generic(i32 noundef 4, i32 noundef 0, ptr noundef nonnull @.str.5, ptr noundef %40) #11
  tail call void @exit_nicely(i32 noundef 1) #12
  unreachable

DeflateCompressorEnd.exit:                        ; preds = %DeflateCompressorCommon.exit.i
  %41 = getelementptr inbounds nuw i8, ptr %4, i64 8
  %42 = load ptr, ptr %41, align 8
  tail call void @pg_free(ptr noundef %42) #11
  %43 = load ptr, ptr %4, align 8
  tail call void @pg_free(ptr noundef %43) #11
  tail call void @pg_free(ptr noundef nonnull %4) #11
  store ptr null, ptr %3, align 8
  br label %44

44:                                               ; preds = %DeflateCompressorEnd.exit, %2
  ret void
}